; Function Attrs: mustprogress uwtable
define void @_ZN7rocksdb31UserKeyTablePropertiesCollector8BlockAddEmmm(ptr nocapture noundef nonnull readonly align 8 dereferenceable(16) %this, i64 noundef %block_uncomp_bytes, i64 noundef %block_compressed_bytes_fast, i64 noundef %block_compressed_bytes_slow) unnamed_addr #0 align 2 {
entry:
  %collector_ = getelementptr inbounds i8, ptr %this, i64 8
  %0 = load ptr, ptr %collector_, align 8
  %vtable = load ptr, ptr %0, align 8
  %vfn = getelementptr inbounds i8, ptr %vtable, i64 32
  %1 = load ptr, ptr %vfn, align 8
  tail call void %1(ptr noundef nonnull align 8 dereferenceable(8) %0, i64 noundef %block_uncomp_bytes, i64 noundef %block_compressed_bytes_fast, i64 noundef %block_compressed_bytes_slow)
  ret void
}